; Function Attrs: nounwind uwtable
define ptr @l_Lake_Job_getTrace___rarg(ptr noundef %0) #1 {
  %2 = getelementptr inbounds nuw i8, ptr %0, i64 8
  %3 = load ptr, ptr %2, align 8, !tbaa !10
  %4 = ptrtoint ptr %3 to i64
  %5 = and i64 %4, 1
  %.not = icmp eq i64 %5, 0
  br i1 %.not, label %6, label %lean_inc.exit14

6:                                                ; preds = %1
  %.val.i = load i32, ptr %3, align 4, !tbaa !4
  %7 = icmp sgt i32 %.val.i, 0
  br i1 %7, label %8, label %10, !prof !9

8:                                                ; preds = %6
  %9 = add nuw i32 %.val.i, 1
  store i32 %9, ptr %3, align 4, !tbaa !4
  br label %lean_inc.exit14

10:                                               ; preds = %6
  %.not.i19 = icmp eq i32 %.val.i, 0
  br i1 %.not.i19, label %lean_inc.exit14, label %11

11:                                               ; preds = %10
  tail call void @lean_inc_ref_cold(ptr noundef nonnull %3) #8
  br label %lean_inc.exit14

lean_inc.exit14:                                  ; preds = %11, %10, %8, %1
  %12 = ptrtoint ptr %0 to i64
  %13 = and i64 %12, 1
  %.not27 = icmp eq i64 %13, 0
  br i1 %.not27, label %14, label %lean_dec.exit12

14:                                               ; preds = %lean_inc.exit14
  %15 = load i32, ptr %0, align 4, !tbaa !4
  %16 = icmp sgt i32 %15, 1
  br i1 %16, label %17, label %19, !prof !9

17:                                               ; preds = %14
  %18 = add nsw i32 %15, -1
  store i32 %18, ptr %0, align 4, !tbaa !4
  br label %lean_dec.exit12

19:                                               ; preds = %14
  %.not.i = icmp eq i32 %15, 0
  br i1 %.not.i, label %lean_dec.exit12, label %20

20:                                               ; preds = %19
  tail call void @lean_dec_ref_cold(ptr noundef nonnull %0) #8
  br label %lean_dec.exit12

lean_dec.exit12:                                  ; preds = %20, %19, %17, %lean_inc.exit14
  %21 = tail call ptr @lean_task_get(ptr noundef %3) #8
  %22 = ptrtoint ptr %21 to i64
  %23 = and i64 %22, 1
  %.not.i20 = icmp eq i64 %23, 0
  br i1 %.not.i20, label %24, label %lean_inc.exit.i

24:                                               ; preds = %lean_dec.exit12
  %.val.i.i = load i32, ptr %21, align 4, !tbaa !4
  %25 = icmp sgt i32 %.val.i.i, 0
  br i1 %25, label %26, label %28, !prof !9

26:                                               ; preds = %24
  %27 = add nuw i32 %.val.i.i, 1
  store i32 %27, ptr %21, align 4, !tbaa !4
  br label %lean_inc.exit.i

28:                                               ; preds = %24
  %.not.i4.i = icmp eq i32 %.val.i.i, 0
  br i1 %.not.i4.i, label %lean_inc.exit.i, label %29

29:                                               ; preds = %28
  tail call void @lean_inc_ref_cold(ptr noundef nonnull %21) #8
  br label %lean_inc.exit.i

lean_inc.exit.i:                                  ; preds = %29, %28, %26, %lean_dec.exit12
  br i1 %.not, label %30, label %lean_task_get_own.exit

30:                                               ; preds = %lean_inc.exit.i
  %31 = load i32, ptr %3, align 4, !tbaa !4
  %32 = icmp sgt i32 %31, 1
  br i1 %32, label %33, label %35, !prof !9

33:                                               ; preds = %30
  %34 = add nsw i32 %31, -1
  store i32 %34, ptr %3, align 4, !tbaa !4
  br label %lean_task_get_own.exit

35:                                               ; preds = %30
  %.not.i.i = icmp eq i32 %31, 0
  br i1 %.not.i.i, label %lean_task_get_own.exit, label %36

36:                                               ; preds = %35
  tail call void @lean_dec_ref_cold(ptr noundef nonnull %3) #8
  br label %lean_task_get_own.exit

lean_task_get_own.exit:                           ; preds = %lean_inc.exit.i, %33, %35, %36
  %37 = getelementptr inbounds nuw i8, ptr %21, i64 16
  %38 = load ptr, ptr %37, align 8, !tbaa !10
  %39 = ptrtoint ptr %38 to i64
  %40 = and i64 %39, 1
  %.not28 = icmp eq i64 %40, 0
  br i1 %.not28, label %41, label %lean_inc.exit13

41:                                               ; preds = %lean_task_get_own.exit
  %.val.i21 = load i32, ptr %38, align 4, !tbaa !4
  %42 = icmp sgt i32 %.val.i21, 0
  br i1 %42, label %43, label %45, !prof !9

43:                                               ; preds = %41
  %44 = add nuw i32 %.val.i21, 1
  store i32 %44, ptr %38, align 4, !tbaa !4
  br label %lean_inc.exit13

45:                                               ; preds = %41
  %.not.i22 = icmp eq i32 %.val.i21, 0
  br i1 %.not.i22, label %lean_inc.exit13, label %46

46:                                               ; preds = %45
  tail call void @lean_inc_ref_cold(ptr noundef nonnull %38) #8
  br label %lean_inc.exit13

lean_inc.exit13:                                  ; preds = %46, %45, %43, %lean_task_get_own.exit
  br i1 %.not.i20, label %47, label %lean_dec.exit11

47:                                               ; preds = %lean_inc.exit13
  %48 = load i32, ptr %21, align 4, !tbaa !4
  %49 = icmp sgt i32 %48, 1
  br i1 %49, label %50, label %52, !prof !9

50:                                               ; preds = %47
  %51 = add nsw i32 %48, -1
  store i32 %51, ptr %21, align 4, !tbaa !4
  br label %lean_dec.exit11

52:                                               ; preds = %47
  %.not.i15 = icmp eq i32 %48, 0
  br i1 %.not.i15, label %lean_dec.exit11, label %53

53:                                               ; preds = %52
  tail call void @lean_dec_ref_cold(ptr noundef nonnull %21) #8
  br label %lean_dec.exit11

lean_dec.exit11:                                  ; preds = %53, %52, %50, %lean_inc.exit13
  %54 = getelementptr inbounds nuw i8, ptr %38, i64 16
  %55 = load ptr, ptr %54, align 8, !tbaa !10
  %56 = ptrtoint ptr %55 to i64
  %57 = and i64 %56, 1
  %.not30 = icmp eq i64 %57, 0
  br i1 %.not30, label %58, label %lean_inc.exit

58:                                               ; preds = %lean_dec.exit11
  %.val.i24 = load i32, ptr %55, align 4, !tbaa !4
  %59 = icmp sgt i32 %.val.i24, 0
  br i1 %59, label %60, label %62, !prof !9

60:                                               ; preds = %58
  %61 = add nuw i32 %.val.i24, 1
  store i32 %61, ptr %55, align 4, !tbaa !4
  br label %lean_inc.exit

62:                                               ; preds = %58
  %.not.i25 = icmp eq i32 %.val.i24, 0
  br i1 %.not.i25, label %lean_inc.exit, label %63

63:                                               ; preds = %62
  tail call void @lean_inc_ref_cold(ptr noundef nonnull %55) #8
  br label %lean_inc.exit

lean_inc.exit:                                    ; preds = %63, %62, %60, %lean_dec.exit11
  br i1 %.not28, label %64, label %lean_dec.exit

64:                                               ; preds = %lean_inc.exit
  %65 = load i32, ptr %38, align 4, !tbaa !4
  %66 = icmp sgt i32 %65, 1
  br i1 %66, label %67, label %69, !prof !9

67:                                               ; preds = %64
  %68 = add nsw i32 %65, -1
  store i32 %68, ptr %38, align 4, !tbaa !4
  br label %lean_dec.exit

69:                                               ; preds = %64
  %.not.i17 = icmp eq i32 %65, 0
  br i1 %.not.i17, label %lean_dec.exit, label %70

70:                                               ; preds = %69
  tail call void @lean_dec_ref_cold(ptr noundef nonnull %38) #8
  br label %lean_dec.exit

lean_dec.exit:                                    ; preds = %70, %69, %67, %lean_inc.exit
  ret ptr %55
}